(lp1
S'http://www.indeed.com/rc/clk?jk=b2adf4af15993f93'
p2
aS'http://www.indeed.com/rc/clk?jk=e60c1dbb2212921d'
p3
aS'http://www.indeed.com/rc/clk?jk=338ff41810146fba'
p4
aS'http://www.indeed.com/rc/clk?jk=756773977772ae54'
p5
aS'http://www.indeed.com/rc/clk?jk=b2e4be4dace5566f'
p6
aS'http://www.indeed.com/rc/clk?jk=eef76b9a2ff7ae7a'
p7
aS'http://www.indeed.com/rc/clk?jk=640a68f70f331b20'
p8
aS'http://www.indeed.com/rc/clk?jk=ca35552c02137950'
p9
aS'http://www.indeed.com/rc/clk?jk=4a96be0f28eb4f27'
p10
aS'http://www.indeed.com/rc/clk?jk=d0309de406984ef7'
p11
aS'http://www.indeed.com/rc/clk?jk=9d9939dcd9593c9d'
p12
aS'http://www.indeed.com/rc/clk?jk=628cf0c68cfbbe71'
p13
aS'http://www.indeed.com/rc/clk?jk=9b3ad57f7ebfbf6b'
p14
aS'http://www.indeed.com/rc/clk?jk=2cdb4d984d7d9e94'
p15
aS'http://www.indeed.com/rc/clk?jk=f8658d939b4819f1'
p16
aS'http://www.indeed.com/rc/clk?jk=e5d02bc63cc82cd1'
p17
aS'http://www.indeed.com/rc/clk?jk=308e8c4e765d4ee7'
p18
aS'http://www.indeed.com/rc/clk?jk=dd893fa45d80247f'
p19
aS'http://www.indeed.com/rc/clk?jk=da68a301d214f020'
p20
aS'http://www.indeed.com/rc/clk?jk=e15462b88b46dc87'
p21
aS'http://www.indeed.com/rc/clk?jk=e15462b88b46dc87'
p22
aS'http://www.indeed.com/rc/clk?jk=da68a301d214f020'
p23
aS'http://www.indeed.com/rc/clk?jk=b1e18ba7ca04274f'
p24
aS'http://www.indeed.com/rc/clk?jk=5b9e7acdc95269ef'
p25
aS'http://www.indeed.com/rc/clk?jk=438d1f82e7faacf6'
p26
aS'http://www.indeed.com/rc/clk?jk=1b059a301550465f'
p27
aS'http://www.indeed.com/rc/clk?jk=e697f080e6a588bf'
p28
aS'http://www.indeed.com/rc/clk?jk=1f8e92344b4c401f'
p29
aS'http://www.indeed.com/rc/clk?jk=fe8843a7cc5bddfd'
p30
aS'http://www.indeed.com/rc/clk?jk=c5cd627bc10f6115'
p31
aS'http://www.indeed.com/rc/clk?jk=83b9788c0c691f24'
p32
aS'http://www.indeed.com/rc/clk?jk=e9a66db26d0c0226'
p33
aS'http://www.indeed.com/rc/clk?jk=42cb7843b5ec4b42'
p34
aS'http://www.indeed.com/rc/clk?jk=368f0748b8736aa7'
p35
aS'http://www.indeed.com/rc/clk?jk=78bd022f925efd8c'
p36
aS'http://www.indeed.com/rc/clk?jk=0ab89d5b97baa3cb'
p37
aS'http://www.indeed.com/rc/clk?jk=3b4608311cc9f53c'
p38
aS'http://www.indeed.com/rc/clk?jk=a8a43c36dc9aa706'
p39
aS'http://www.indeed.com/rc/clk?jk=eadba6f24430a78c'
p40
aS'http://www.indeed.com/rc/clk?jk=5e30147236765267'
p41
aS'http://www.indeed.com/rc/clk?jk=d587e656121f54cc'
p42
aS'http://www.indeed.com/rc/clk?jk=093e4a6368e55ea6'
p43
aS'http://www.indeed.com/rc/clk?jk=419bb9905c326dda'
p44
aS'http://www.indeed.com/rc/clk?jk=4e5694e6a91bf938'
p45
aS'http://www.indeed.com/rc/clk?jk=e01e7679a721fc99'
p46
aS'http://www.indeed.com/rc/clk?jk=84b8c57e8bea66eb'
p47
aS'http://www.indeed.com/rc/clk?jk=c7aca9fd10ade80b'
p48
aS'http://www.indeed.com/rc/clk?jk=83f1c6d763c640fb'
p49
aS'http://www.indeed.com/rc/clk?jk=7da4d94525532180'
p50
aS'http://www.indeed.com/rc/clk?jk=341cb4e04be09db2'
p51
aS'http://www.indeed.com/rc/clk?jk=008047875207ed4b'
p52
aS'http://www.indeed.com/rc/clk?jk=5ee0242143110ded'
p53
aS'http://www.indeed.com/rc/clk?jk=ab9c96862c960561'
p54
aS'http://www.indeed.com/rc/clk?jk=cbe87a8b0171caae'
p55
aS'http://www.indeed.com/rc/clk?jk=c4aaa2a6cdc633e2'
p56
aS'http://www.indeed.com/rc/clk?jk=df3eaa02963df4e3'
p57
aS'http://www.indeed.com/rc/clk?jk=6a1af4cc8fbb6616'
p58
aS'http://www.indeed.com/rc/clk?jk=f01dd75fa41c08ee'
p59
aS'http://www.indeed.com/rc/clk?jk=e593ef522c0f52f6'
p60
aS'http://www.indeed.com/rc/clk?jk=4e8cc834dc42d068'
p61
aS'http://www.indeed.com/rc/clk?jk=24237869c5a3f1a9'
p62
aS'http://www.indeed.com/rc/clk?jk=7c3dd8ced2c54c1b'
p63
aS'http://www.indeed.com/rc/clk?jk=6553f01392acfb26'
p64
aS'http://www.indeed.com/rc/clk?jk=bcfa9135c6f896d3'
p65
aS'http://www.indeed.com/rc/clk?jk=1417578f56314052'
p66
aS'http://www.indeed.com/rc/clk?jk=b80d609928fbad3c'
p67
aS'http://www.indeed.com/rc/clk?jk=44743023e507e1e1'
p68
aS'http://www.indeed.com/rc/clk?jk=fc9178860b6dd813'
p69
aS'http://www.indeed.com/rc/clk?jk=5aefd5f3c1685f37'
p70
aS'http://www.indeed.com/rc/clk?jk=f97c256533999e95'
p71
aS'http://www.indeed.com/rc/clk?jk=33fe6a8c055dbf73'
p72
aS'http://www.indeed.com/rc/clk?jk=5aefd5f3c1685f37'
p73
aS'http://www.indeed.com/rc/clk?jk=096889938e472517'
p74
aS'http://www.indeed.com/rc/clk?jk=7c131107826a7494'
p75
aS'http://www.indeed.com/rc/clk?jk=6842dc06fc916dac'
p76
aS'http://www.indeed.com/rc/clk?jk=5162790c0c7e638e'
p77
aS'http://www.indeed.com/rc/clk?jk=1b475e94eaf2d586'
p78
aS'http://www.indeed.com/rc/clk?jk=faa109c1eb7baa17'
p79
aS'http://www.indeed.com/rc/clk?jk=bdccb720c558fd8b'
p80
aS'http://www.indeed.com/rc/clk?jk=4ab68fee34c53521'
p81
aS'http://www.indeed.com/rc/clk?jk=f2d01f762f74b9ea'
p82
aS'http://www.indeed.com/rc/clk?jk=aa81ac3042fda813'
p83
aS'http://www.indeed.com/rc/clk?jk=ff65b23d167ce0e3'
p84
aS'http://www.indeed.com/rc/clk?jk=fb39c4c85149043d'
p85
aS'http://www.indeed.com/rc/clk?jk=4ade5ec1bfb2d5f7'
p86
aS'http://www.indeed.com/rc/clk?jk=33fe6a8c055dbf73'
p87
aS'http://www.indeed.com/rc/clk?jk=1b475e94eaf2d586'
p88
aS'http://www.indeed.com/rc/clk?jk=ab8f2f171d7536f9'
p89
aS'http://www.indeed.com/rc/clk?jk=7a17d6623bb3b6a7'
p90
aS'http://www.indeed.com/rc/clk?jk=6352a97f8bab8891'
p91
aS'http://www.indeed.com/rc/clk?jk=6352a97f8bab8891'
p92
aS'http://www.indeed.com/rc/clk?jk=3e927870e2691bc9'
p93
aS'http://www.indeed.com/rc/clk?jk=fe2adb2887fd86b1'
p94
aS'http://www.indeed.com/rc/clk?jk=cea20af732cc929b'
p95
aS'http://www.indeed.com/rc/clk?jk=fc9178860b6dd813'
p96
aS'http://www.indeed.com/rc/clk?jk=f2d01f762f74b9ea'
p97
aS'http://www.indeed.com/rc/clk?jk=f97c256533999e95'
p98
aS'http://www.indeed.com/rc/clk?jk=92a3108f9931ca80'
p99
aS'http://www.indeed.com/rc/clk?jk=6d839ce9c266b630'
p100
aS'http://www.indeed.com/rc/clk?jk=ab8f2f171d7536f9'
p101
aS'http://www.indeed.com/rc/clk?jk=92a3108f9931ca80'
p102
aS'http://www.indeed.com/rc/clk?jk=67b12f4648cb8c83'
p103
aS'http://www.indeed.com/rc/clk?jk=aeb15ef1ec4c4379'
p104
aS'http://www.indeed.com/rc/clk?jk=f9adf2fe89583942'
p105
aS'http://www.indeed.com/rc/clk?jk=90ee2e88fca22b91'
p106
aS'http://www.indeed.com/rc/clk?jk=d9a1dc8bf3a64d73'
p107
aS'http://www.indeed.com/rc/clk?jk=bd1353a15c76385e'
p108
aS'http://www.indeed.com/rc/clk?jk=4917c28c28d6a13b'
p109
aS'http://www.indeed.com/rc/clk?jk=5aab004c85e6f5dd'
p110
aS'http://www.indeed.com/rc/clk?jk=aaa1aa59a79d768c'
p111
aS'http://www.indeed.com/rc/clk?jk=cfdba58585f3550b'
p112
aS'http://www.indeed.com/rc/clk?jk=9aa0a6453147c42e'
p113
aS'http://www.indeed.com/rc/clk?jk=91e71bf5aa57c673'
p114
aS'http://www.indeed.com/rc/clk?jk=191a2d3d40a60e8e'
p115
aS'http://www.indeed.com/rc/clk?jk=c6967b6481ede6b1'
p116
aS'http://www.indeed.com/rc/clk?jk=b27ed9feb86fa771'
p117
aS'http://www.indeed.com/rc/clk?jk=36a33da124cf23cd'
p118
aS'http://www.indeed.com/rc/clk?jk=1aee886805225666'
p119
aS'http://www.indeed.com/rc/clk?jk=99cf121a8a1f0bb0'
p120
aS'http://www.indeed.com/rc/clk?jk=23103ff5c020ee62'
p121
aS'http://www.indeed.com/rc/clk?jk=3860f117d993e9be'
p122
aS'http://www.indeed.com/rc/clk?jk=9094091bf14b43e0'
p123
aS'http://www.indeed.com/rc/clk?jk=95446a24999b569e'
p124
aS'http://www.indeed.com/rc/clk?jk=4b991c558ec5a8be'
p125
aS'http://www.indeed.com/rc/clk?jk=a795359e65fa5122'
p126
aS'http://www.indeed.com/rc/clk?jk=7fc305ff0731ed5a'
p127
aS'http://www.indeed.com/rc/clk?jk=b96786f20fae17fe'
p128
aS'http://www.indeed.com/rc/clk?jk=c6967b6481ede6b1'
p129
aS'http://www.indeed.com/rc/clk?jk=5f551e23d9fd17a8'
p130
aS'http://www.indeed.com/rc/clk?jk=266b354e4f9aabd2'
p131
aS'http://www.indeed.com/rc/clk?jk=9094091bf14b43e0'
p132
aS'http://www.indeed.com/rc/clk?jk=f16fb1739d26b148'
p133
aS'http://www.indeed.com/rc/clk?jk=4b991c558ec5a8be'
p134
aS'http://www.indeed.com/rc/clk?jk=7fc305ff0731ed5a'
p135
aS'http://www.indeed.com/rc/clk?jk=a1f2ddfa8c46f43a'
p136
aS'http://www.indeed.com/rc/clk?jk=3915e238aa60cbcb'
p137
aS'http://www.indeed.com/rc/clk?jk=b2159f6428deefb9'
p138
aS'http://www.indeed.com/rc/clk?jk=e90e50ac0a6416c4'
p139
aS'http://www.indeed.com/rc/clk?jk=5f551e23d9fd17a8'
p140
aS'http://www.indeed.com/rc/clk?jk=95446a24999b569e'
p141
aS'http://www.indeed.com/rc/clk?jk=a34ef0ed1b7915bb'
p142
aS'http://www.indeed.com/rc/clk?jk=d7c0bcbd0032086c'
p143
aS'http://www.indeed.com/rc/clk?jk=f48738d8642fce63'
p144
aS'http://www.indeed.com/rc/clk?jk=06cf241c578072a5'
p145
aS'http://www.indeed.com/rc/clk?jk=266b354e4f9aabd2'
p146
aS'http://www.indeed.com/rc/clk?jk=fb601a6b2e6ad732'
p147
aS'http://www.indeed.com/rc/clk?jk=79f7d7bdf9abf540'
p148
aS'http://www.indeed.com/rc/clk?jk=9bed1e4ed70c913f'
p149
aS'http://www.indeed.com/rc/clk?jk=a721889613a2777a'
p150
aS'http://www.indeed.com/rc/clk?jk=62dbbd932a419b0e'
p151
aS'http://www.indeed.com/rc/clk?jk=5ea13467c495e49b'
p152
aS'http://www.indeed.com/rc/clk?jk=6dee975c0c8428e5'
p153
aS'http://www.indeed.com/rc/clk?jk=66c9977b167c5ee7'
p154
aS'http://www.indeed.com/rc/clk?jk=cd7252c2b2815f5b'
p155
aS'http://www.indeed.com/rc/clk?jk=4e2f24b6b5e2f55b'
p156
aS'http://www.indeed.com/rc/clk?jk=5441749eedc4aa83'
p157
aS'http://www.indeed.com/rc/clk?jk=1a81c344fb9e5385'
p158
aS'http://www.indeed.com/rc/clk?jk=a36c8b9c5fde4fce'
p159
aS'http://www.indeed.com/rc/clk?jk=ff0eb95d2b345016'
p160
aS'http://www.indeed.com/rc/clk?jk=44e72f8e31e16bab'
p161
aS'http://www.indeed.com/rc/clk?jk=c10d7549d12cace5'
p162
aS'http://www.indeed.com/rc/clk?jk=2ebaf11d948f8b29'
p163
aS'http://www.indeed.com/rc/clk?jk=e70512c6316aa672'
p164
aS'http://www.indeed.com/rc/clk?jk=b6a32719bbe79c4e'
p165
aS'http://www.indeed.com/rc/clk?jk=b4321443a781c1d9'
p166
aS'http://www.indeed.com/rc/clk?jk=c30e136dd55b63df'
p167
aS'http://www.indeed.com/rc/clk?jk=199317017d626a69'
p168
aS'http://www.indeed.com/rc/clk?jk=77346112c7f83d75'
p169
aS'http://www.indeed.com/rc/clk?jk=522f174c42d7889a'
p170
aS'http://www.indeed.com/rc/clk?jk=392b38a8f9ac9b0b'
p171
aS'http://www.indeed.com/rc/clk?jk=4917c28c28d6a13b'
p172
aS'http://www.indeed.com/rc/clk?jk=b069cf9e17239bcb'
p173
aS'http://www.indeed.com/rc/clk?jk=64962f279f3a4bd2'
p174
aS'http://www.indeed.com/rc/clk?jk=5432a8da2de83646'
p175
aS'http://www.indeed.com/rc/clk?jk=e70512c6316aa672'
p176
aS'http://www.indeed.com/rc/clk?jk=c9933a8daf2df577'
p177
aS'http://www.indeed.com/rc/clk?jk=fbf80863affdf2ff'
p178
aS'http://www.indeed.com/rc/clk?jk=d70e1b8e46f644ab'
p179
aS'http://www.indeed.com/rc/clk?jk=e14203203734b506'
p180
aS'http://www.indeed.com/rc/clk?jk=77346112c7f83d75'
p181
aS'http://www.indeed.com/rc/clk?jk=d4524b73dc59ba1b'
p182
aS'http://www.indeed.com/rc/clk?jk=77320eb32993d355'
p183
aS'http://www.indeed.com/rc/clk?jk=b4321443a781c1d9'
p184
aS'http://www.indeed.com/rc/clk?jk=a129dacea81c4e83'
p185
aS'http://www.indeed.com/rc/clk?jk=e12c2226442d2935'
p186
aS'http://www.indeed.com/rc/clk?jk=908ccd60166721e7'
p187
aS'http://www.indeed.com/rc/clk?jk=99e4a10391477516'
p188
aS'http://www.indeed.com/rc/clk?jk=c8f7dcb23f065f3f'
p189
aS'http://www.indeed.com/rc/clk?jk=492c608ca7c97f1d'
p190
aS'http://www.indeed.com/rc/clk?jk=3aba9ed215564009'
p191
aS'http://www.indeed.com/rc/clk?jk=77320eb32993d355'
p192
aS'http://www.indeed.com/rc/clk?jk=2eff959115d4406f'
p193
aS'http://www.indeed.com/rc/clk?jk=3aba9ed215564009'
p194
aS'http://www.indeed.com/rc/clk?jk=d31fba5359e2df58'
p195
aS'http://www.indeed.com/rc/clk?jk=908ccd60166721e7'
p196
aS'http://www.indeed.com/rc/clk?jk=349b9ebf1dbb27c8'
p197
aS'http://www.indeed.com/rc/clk?jk=d4524b73dc59ba1b'
p198
aS'http://www.indeed.com/rc/clk?jk=3a98cc3973302f14'
p199
aS'http://www.indeed.com/rc/clk?jk=5b7f5a309f006555'
p200
aS'http://www.indeed.com/rc/clk?jk=3a303e398a688208'
p201
a.